; ModuleID = '38/315.c'
source_filename = "38/315.c"
target datalayout = "e-m:e-p270:32:32-p271:32:32-p272:64:64-i64:64-f80:128-n8:16:32:64-S128"
target triple = "x86_64-pc-linux-gnu"

@.str = private unnamed_addr constant [3 x i8] c"%d\00", align 1
@.str.1 = private unnamed_addr constant [4 x i8] c"%lf\00", align 1
@.str.2 = private unnamed_addr constant [6 x i8] c"%.5f\0A\00", align 1

; Function Attrs: noinline nounwind uwtable
define dso_local i32 @main() #0 {
  %1 = alloca i32, align 4
  %2 = alloca i32, align 4
  %3 = alloca i32, align 4
  %4 = alloca i32, align 4
  %5 = alloca i32, align 4
  %6 = alloca [100 x double], align 16
  %7 = alloca double*, align 8
  %8 = alloca double, align 8
  %9 = alloca double, align 8
  %10 = alloca double, align 8
  store i32 0, i32* %1, align 4
  %11 = call i32 (i8*, ...) @__isoc99_scanf(i8* getelementptr inbounds ([3 x i8], [3 x i8]* @.str, i64 0, i64 0), i32* %2)
  %12 = load i32, i32* %2, align 4
  %13 = sext i32 %12 to i64
  %14 = mul i64 8, %13
  %15 = call noalias i8* @malloc(i64 %14) #3
  %16 = bitcast i8* %15 to double*
  store double* %16, double** %7, align 8
  store i32 0, i32* %4, align 4
  br label %17

17:                                               ; preds = %79, %0
  %18 = load i32, i32* %4, align 4
  %19 = load i32, i32* %2, align 4
  %20 = icmp slt i32 %18, %19
  br i1 %20, label %21, label %82

21:                                               ; preds = %17
  %22 = call i32 (i8*, ...) @__isoc99_scanf(i8* getelementptr inbounds ([3 x i8], [3 x i8]* @.str, i64 0, i64 0), i32* %3)
  store double 0.000000e+00, double* %8, align 8
  store double 0.000000e+00, double* %9, align 8
  store i32 0, i32* %5, align 4
  br label %23

23:                                               ; preds = %41, %21
  %24 = load i32, i32* %5, align 4
  %25 = load i32, i32* %3, align 4
  %26 = icmp slt i32 %24, %25
  br i1 %26, label %27, label %44

27:                                               ; preds = %23
  %28 = load i32, i32* %5, align 4
  %29 = sext i32 %28 to i64
  %30 = getelementptr inbounds [100 x double], [100 x double]* %6, i64 0, i64 %29
  %31 = call i32 (i8*, ...) @__isoc99_scanf(i8* getelementptr inbounds ([4 x i8], [4 x i8]* @.str.1, i64 0, i64 0), double* %30)
  %32 = load i32, i32* %5, align 4
  %33 = sext i32 %32 to i64
  %34 = getelementptr inbounds [100 x double], [100 x double]* %6, i64 0, i64 %33
  %35 = load double, double* %34, align 8
  %36 = load i32, i32* %3, align 4
  %37 = sitofp i32 %36 to double
  %38 = fdiv double %35, %37
  %39 = load double, double* %8, align 8
  %40 = fadd double %39, %38
  store double %40, double* %8, align 8
  br label %41

41:                                               ; preds = %27
  %42 = load i32, i32* %5, align 4
  %43 = add nsw i32 %42, 1
  store i32 %43, i32* %5, align 4
  br label %23

44:                                               ; preds = %23
  store i32 0, i32* %5, align 4
  br label %45

45:                                               ; preds = %68, %44
  %46 = load i32, i32* %5, align 4
  %47 = load i32, i32* %3, align 4
  %48 = icmp slt i32 %46, %47
  br i1 %48, label %49, label %71

49:                                               ; preds = %45
  %50 = load i32, i32* %5, align 4
  %51 = sext i32 %50 to i64
  %52 = getelementptr inbounds [100 x double], [100 x double]* %6, i64 0, i64 %51
  %53 = load double, double* %52, align 8
  %54 = load double, double* %8, align 8
  %55 = fsub double %53, %54
  %56 = load i32, i32* %5, align 4
  %57 = sext i32 %56 to i64
  %58 = getelementptr inbounds [100 x double], [100 x double]* %6, i64 0, i64 %57
  %59 = load double, double* %58, align 8
  %60 = load double, double* %8, align 8
  %61 = fsub double %59, %60
  %62 = fmul double %55, %61
  %63 = load i32, i32* %3, align 4
  %64 = sitofp i32 %63 to double
  %65 = fdiv double %62, %64
  %66 = load double, double* %9, align 8
  %67 = fadd double %66, %65
  store double %67, double* %9, align 8
  br label %68

68:                                               ; preds = %49
  %69 = load i32, i32* %5, align 4
  %70 = add nsw i32 %69, 1
  store i32 %70, i32* %5, align 4
  br label %45

71:                                               ; preds = %45
  %72 = load double, double* %9, align 8
  %73 = call double @sqrt(double %72) #3
  store double %73, double* %10, align 8
  %74 = load double, double* %10, align 8
  %75 = load double*, double** %7, align 8
  %76 = load i32, i32* %4, align 4
  %77 = sext i32 %76 to i64
  %78 = getelementptr inbounds double, double* %75, i64 %77
  store double %74, double* %78, align 8
  br label %79

79:                                               ; preds = %71
  %80 = load i32, i32* %4, align 4
  %81 = add nsw i32 %80, 1
  store i32 %81, i32* %4, align 4
  br label %17

82:                                               ; preds = %17
  store i32 0, i32* %4, align 4
  br label %83

83:                                               ; preds = %94, %82
  %84 = load i32, i32* %4, align 4
  %85 = load i32, i32* %2, align 4
  %86 = icmp slt i32 %84, %85
  br i1 %86, label %87, label %97

87:                                               ; preds = %83
  %88 = load double*, double** %7, align 8
  %89 = load i32, i32* %4, align 4
  %90 = sext i32 %89 to i64
  %91 = getelementptr inbounds double, double* %88, i64 %90
  %92 = load double, double* %91, align 8
  %93 = call i32 (i8*, ...) @printf(i8* getelementptr inbounds ([6 x i8], [6 x i8]* @.str.2, i64 0, i64 0), double %92)
  br label %94

94:                                               ; preds = %87
  %95 = load i32, i32* %4, align 4
  %96 = add nsw i32 %95, 1
  store i32 %96, i32* %4, align 4
  br label %83

97:                                               ; preds = %83
  %98 = load double*, double** %7, align 8
  %99 = bitcast double* %98 to i8*
  call void @free(i8* %99) #3
  ret i32 0
}

declare dso_local i32 @__isoc99_scanf(i8*, ...) #1

; Function Attrs: nounwind
declare dso_local noalias i8* @malloc(i64) #2

; Function Attrs: nounwind
declare dso_local double @sqrt(double) #2

declare dso_local i32 @printf(i8*, ...) #1

; Function Attrs: nounwind
declare dso_local void @free(i8*) #2


!llvm.module.flags = !{!0}
!llvm.ident = !{!1}

!0 = !{i32 1, !"wchar_size", i32 4}
!1 = !{!"clang version 10.0.0-4ubuntu1 "}
